target datalayout = "e-m:e-p270:32:32-p271:32:32-p272:64:64-i64:64-i128:128-f80:128-n8:16:32:64-S128"
target triple = "x86_64-pc-linux-gnu"

%class.params_ref = type { ptr }
%"class.sls::seq_plugin" = type { %"class.sls::plugin.base", %class.seq_util, %class.arith_util, %class.seq_rewriter, %class.th_rewriter, %class.scoped_ptr_vector, %class.indexed_uint_set, i8, i32, %class.vector.6, %class.vector.7, %class.svector.8 }
%"class.sls::plugin.base" = type <{ ptr, ptr, ptr, i32 }>
%class.seq_util = type { ptr, ptr, ptr, i32, [4 x i8], %"class.seq_util::str", %"class.seq_util::rex" }
%"class.seq_util::str" = type <{ ptr, ptr, i32, [4 x i8] }>
%"class.seq_util::rex" = type { ptr, ptr, i32, %class.vector, %class.ref_vector, %"struct.seq_util::rex::info", %"struct.seq_util::rex::info" }
%class.vector = type { ptr }
%class.ref_vector = type { %class.ref_vector_core }
%class.ref_vector_core = type { %class.ref_manager_wrapper, %class.ptr_vector }
%class.ref_manager_wrapper = type { ptr }
%class.ptr_vector = type { %class.vector.0 }
%class.vector.0 = type { ptr }
%"struct.seq_util::rex::info" = type { i32, i8, i32, i32 }
%class.arith_util = type { ptr, ptr }
%class.seq_rewriter = type <{ %class.seq_util, %class.arith_util, %class.bool_rewriter, %class.re2automaton, %"class.seq_rewriter::op_cache", %class.ref_vector, %class.ref_vector, %class.ref_vector, i8, [7 x i8] }>
%class.bool_rewriter = type { ptr, i8, i8, i8, i8, i8, i8, i32, i8, i32, i32, i8, %class.ptr_vector, %class.ptr_vector, %class.svector, %class.svector }
%class.svector = type { %class.vector.1 }
%class.vector.1 = type { ptr }
%class.re2automaton = type { ptr, [8 x i8], %class.seq_util, %class.scoped_ptr, %class.scoped_ptr.2, %class.scoped_ptr.3 }
%class.scoped_ptr = type { ptr }
%class.scoped_ptr.2 = type { ptr }
%class.scoped_ptr.3 = type { ptr }
%"class.seq_rewriter::op_cache" = type { i32, %class.ref_vector, %class.hashtable }
%class.hashtable = type { %class.core_hashtable.base, [4 x i8] }
%class.core_hashtable.base = type <{ ptr, i32, i32, i32 }>
%class.th_rewriter = type { ptr, %class.params_ref }
%class.scoped_ptr_vector = type { %class.ptr_vector.4 }
%class.ptr_vector.4 = type { %class.vector.5 }
%class.vector.5 = type { ptr }
%class.indexed_uint_set = type { i32, %class.svector, %class.svector }
%class.vector.6 = type { ptr }
%class.vector.7 = type { ptr }
%class.svector.8 = type { %class.vector.9 }
%class.vector.9 = type { ptr }
%"class.sls::plugin" = type <{ ptr, ptr, ptr, i32, [4 x i8] }>
%"class.sls::context" = type <{ ptr, ptr, %class.scoped_ptr_vector.10, %class.indexed_uint_set, %class.indexed_uint_set, %class.ref_vector, %class.svector, %class.params_ref, %class.vector.13, %class.svector.14, %class.svector.14, %class.indexed_uint_set, %class.random_gen, i8, i8, i8, i8, %class.ref_vector, %class.ref_vector, %class.ptr_vector, %"struct.sls::context::greater_depth", %"struct.sls::context::less_depth", %class.heap, %class.heap.18, %class.uint_set, %class.ref_vector, %"struct.sls::context::stats", [4 x i8], %class.ref_vector, i8, [7 x i8] }>
%class.scoped_ptr_vector.10 = type { %class.ptr_vector.11 }
%class.ptr_vector.11 = type { %class.vector.12 }
%class.vector.12 = type { ptr }
%class.vector.13 = type { ptr }
%class.svector.14 = type { %class.vector.15 }
%class.vector.15 = type { ptr }
%class.random_gen = type { i32 }
%"struct.sls::context::greater_depth" = type { ptr }
%"struct.sls::context::less_depth" = type { ptr }
%class.heap = type { %"struct.sls::context::greater_depth", %class.svector.16, %class.svector.16 }
%class.svector.16 = type { %class.vector.17 }
%class.vector.17 = type { ptr }
%class.heap.18 = type { %"struct.sls::context::less_depth", %class.svector.16, %class.svector.16 }
%class.uint_set = type { %class.svector }
%"struct.sls::context::stats" = type { i32, i32, i32 }

; Function Attrs: mustprogress nounwind uwtable
define linkonce_odr hidden noundef i32 @_ZN10random_genclEv(ptr noundef nonnull align 4 dereferenceable(4) %0) #5 comdat align 2 {
  %2 = alloca ptr, align 8
  store ptr %0, ptr %2, align 8, !tbaa !323
  %3 = load ptr, ptr %2, align 8
  %4 = getelementptr inbounds nuw %class.random_gen, ptr %3, i32 0, i32 0
  %5 = load i32, ptr %4, align 4, !tbaa !325
  %6 = zext i32 %5 to i64
  %7 = mul nsw i64 %6, 214013
  %8 = add nsw i64 %7, 2531011
  %9 = trunc i64 %8 to i32
  %10 = getelementptr inbounds nuw %class.random_gen, ptr %3, i32 0, i32 0
  store i32 %9, ptr %10, align 4, !tbaa !325
  %11 = lshr i32 %9, 16
  %12 = and i32 %11, 32767
  ret i32 %12
}

; Function Attrs: mustprogress nounwind uwtable
define linkonce_odr hidden noundef nonnull align 4 dereferenceable(4) ptr @_ZNK6vectorIjLb0EjEixEj(ptr noundef nonnull align 8 dereferenceable(8) %0, i32 noundef %1) #5 comdat align 2 {
  %3 = alloca ptr, align 8
  %4 = alloca i32, align 4
  store ptr %0, ptr %3, align 8, !tbaa !238
  store i32 %1, ptr %4, align 4, !tbaa !130
  %5 = load ptr, ptr %3, align 8
  %6 = getelementptr inbounds nuw %class.vector.1, ptr %5, i32 0, i32 0
  %7 = load ptr, ptr %6, align 8, !tbaa !241
  %8 = load i32, ptr %4, align 4, !tbaa !130
  %9 = zext i32 %8 to i64
  %10 = getelementptr inbounds nuw i32, ptr %7, i64 %9
  ret ptr %10
}

; Function Attrs: mustprogress uwtable
define linkonce_odr hidden noundef i32 @_ZN10random_genclEj(ptr noundef nonnull align 4 dereferenceable(4) %0, i32 noundef %1) #4 comdat align 2 {
  %3 = alloca ptr, align 8
  %4 = alloca i32, align 4
  %5 = alloca i32, align 4
  store ptr %0, ptr %3, align 8, !tbaa !323
  store i32 %1, ptr %4, align 4, !tbaa !130
  %6 = load ptr, ptr %3, align 8
  call void @llvm.lifetime.start.p0(i64 4, ptr %5) #3
  %7 = call noundef i32 @_ZN10random_genclEv(ptr noundef nonnull align 4 dereferenceable(4) %6)
  store i32 %7, ptr %5, align 4, !tbaa !130
  %8 = load i32, ptr %5, align 4, !tbaa !130
  %9 = load i32, ptr %4, align 4, !tbaa !130
  %10 = urem i32 %8, %9
  call void @llvm.lifetime.end.p0(i64 4, ptr %5) #3
  ret i32 %10
}

; Function Attrs: mustprogress nounwind uwtable
define linkonce_odr hidden noundef i32 @_ZNK16indexed_uint_setixEj(ptr noundef nonnull align 8 dereferenceable(24) %0, i32 noundef %1) #5 comdat align 2 {
  %3 = alloca ptr, align 8
  %4 = alloca i32, align 4
  store ptr %0, ptr %3, align 8, !tbaa !108
  store i32 %1, ptr %4, align 4, !tbaa !130
  %5 = load ptr, ptr %3, align 8
  %6 = getelementptr inbounds nuw %class.indexed_uint_set, ptr %5, i32 0, i32 1
  %7 = load i32, ptr %4, align 4, !tbaa !130
  %8 = call noundef nonnull align 4 dereferenceable(4) ptr @_ZNK6vectorIjLb0EjEixEj(ptr noundef nonnull align 8 dereferenceable(8) %6, i32 noundef %7)
  %9 = load i32, ptr %8, align 4, !tbaa !130
  ret i32 %9
}

; Function Attrs: mustprogress uwtable
define linkonce_odr hidden noundef i32 @_ZN3sls7context4randEj(ptr noundef nonnull align 8 dereferenceable(321) %0, i32 noundef %1) #4 comdat align 2 {
  %3 = alloca ptr, align 8
  %4 = alloca i32, align 4
  store ptr %0, ptr %3, align 8, !tbaa !8
  store i32 %1, ptr %4, align 4, !tbaa !130
  %5 = load ptr, ptr %3, align 8
  %6 = getelementptr inbounds nuw %"class.sls::context", ptr %5, i32 0, i32 12
  %7 = load i32, ptr %4, align 4, !tbaa !130
  %8 = call noundef i32 @_ZN10random_genclEj(ptr noundef nonnull align 4 dereferenceable(4) %6, i32 noundef %7)
  ret i32 %8
}

; Function Attrs: mustprogress nounwind uwtable
define linkonce_odr hidden noundef i32 @_ZNK16indexed_uint_set4sizeEv(ptr noundef nonnull align 8 dereferenceable(24) %0) #5 comdat align 2 {
  %2 = alloca ptr, align 8
  store ptr %0, ptr %2, align 8, !tbaa !108
  %3 = load ptr, ptr %2, align 8
  %4 = getelementptr inbounds nuw %class.indexed_uint_set, ptr %3, i32 0, i32 0
  %5 = load i32, ptr %4, align 8, !tbaa !110
  ret i32 %5
}

; Function Attrs: mustprogress nounwind uwtable
define linkonce_odr hidden noundef zeroext i1 @_ZNK16indexed_uint_set5emptyEv(ptr noundef nonnull align 8 dereferenceable(24) %0) #5 comdat align 2 {
  %2 = alloca ptr, align 8
  store ptr %0, ptr %2, align 8, !tbaa !108
  %3 = load ptr, ptr %2, align 8
  %4 = getelementptr inbounds nuw %class.indexed_uint_set, ptr %3, i32 0, i32 0
  %5 = load i32, ptr %4, align 8, !tbaa !110
  %6 = icmp eq i32 %5, 0
  ret i1 %6
}

; Function Attrs: mustprogress uwtable
define hidden noundef i32 @_ZNK3sls10seq_plugin11random_charEv(ptr noundef nonnull align 8 dereferenceable(768) %0) #4 align 2 {
  %2 = alloca ptr, align 8
  store ptr %0, ptr %2, align 8, !tbaa !3
  %3 = load ptr, ptr %2, align 8
  %4 = getelementptr inbounds nuw %"class.sls::seq_plugin", ptr %3, i32 0, i32 6
  %5 = call noundef zeroext i1 @_ZNK16indexed_uint_set5emptyEv(ptr noundef nonnull align 8 dereferenceable(24) %4)
  br i1 %5, label %6, label %7

6:                                                ; preds = %1
  br label %15

7:                                                ; preds = %1
  %8 = getelementptr inbounds nuw %"class.sls::seq_plugin", ptr %3, i32 0, i32 6
  %9 = getelementptr inbounds nuw %"class.sls::plugin", ptr %3, i32 0, i32 1
  %10 = load ptr, ptr %9, align 8, !tbaa !127
  %11 = getelementptr inbounds nuw %"class.sls::seq_plugin", ptr %3, i32 0, i32 6
  %12 = call noundef i32 @_ZNK16indexed_uint_set4sizeEv(ptr noundef nonnull align 8 dereferenceable(24) %11)
  %13 = call noundef i32 @_ZN3sls7context4randEj(ptr noundef nonnull align 8 dereferenceable(321) %10, i32 noundef %12)
  %14 = call noundef i32 @_ZNK16indexed_uint_setixEj(ptr noundef nonnull align 8 dereferenceable(24) %8, i32 noundef %13)
  br label %15

15:                                               ; preds = %7, %6
  %16 = phi i32 [ 97, %6 ], [ %14, %7 ]
  ret i32 %16
}