; Function Attrs: mustprogress nofree norecurse nosync nounwind willreturn memory(readwrite, inaccessiblemem: none) uwtable
define hidden noundef i32 @_ZNK3sls10seq_plugin11random_charEv(ptr noundef nonnull readonly align 8 captures(none) dereferenceable(768) %0) local_unnamed_addr #10 align 2 {
  %2 = getelementptr inbounds nuw i8, ptr %0, i64 712
  %3 = load i32, ptr %2, align 8, !tbaa !87
  %4 = icmp eq i32 %3, 0
  br i1 %4, label %20, label %5

5:                                                ; preds = %1
  %6 = getelementptr inbounds nuw i8, ptr %0, i64 8
  %7 = load ptr, ptr %6, align 8, !tbaa !150
  %8 = getelementptr inbounds nuw i8, ptr %7, i64 152
  %9 = load i32, ptr %8, align 4, !tbaa !186
  %10 = mul i32 %9, 214013
  %11 = add i32 %10, 2531011
  store i32 %11, ptr %8, align 4, !tbaa !186
  %12 = lshr i32 %11, 16
  %13 = and i32 %12, 32767
  %14 = urem i32 %13, %3
  %15 = getelementptr inbounds nuw i8, ptr %0, i64 720
  %16 = load ptr, ptr %15, align 8, !tbaa !139
  %17 = zext nneg i32 %14 to i64
  %18 = getelementptr inbounds nuw i32, ptr %16, i64 %17
  %19 = load i32, ptr %18, align 4, !tbaa !130
  br label %20

20:                                               ; preds = %1, %5
  %21 = phi i32 [ %19, %5 ], [ 97, %1 ]
  ret i32 %21
}